Certificate:
    Data:
        Version: 3 (0x2)
        Serial Number:
            64:b3:1c:d2:c6:c8:71:b6:48:fa:c8:7c:4c:df:8d:97
        Signature Algorithm: sha256WithRSAEncryption
        Issuer: 
        Validity
            Not Before: Dec 14 04:12:16 2018 GMT
            Not After : Dec 11 04:12:16 2028 GMT
        Subject: 
        Subject Public Key Info:
            Public Key Algorithm: rsaEncryption
                RSA Public-Key: (4096 bit)
                Modulus:
                    00:b6:7e:b3:ea:a1:06:47:85:c2:af:0c:22:da:06:
                    69:77:55:c7:d2:1d:0c:0e:17:1d:2a:36:19:85:49:
                    4a:c3:54:d6:30:ff:66:d3:65:73:a6:17:68:30:89:
                    71:d8:cf:67:1c:96:80:46:9d:e8:a7:da:15:ca:f9:
                    16:75:1b:ac:fd:7f:d9:0a:06:83:da:92:b9:53:f1:
                    b7:49:e9:6b:c2:e8:a2:56:24:97:c5:e4:e6:3a:80:
                    06:63:59:83:8a:de:1c:fa:6e:dd:7c:b9:a6:67:f7:
                    29:8f:52:46:f1:d0:3e:13:44:19:85:a1:e4:2f:37:
                    b0:94:3f:e3:f6:97:65:c8:70:c4:c0:19:d3:2a:c3:
                    fa:1a:e0:6a:4a:e1:dd:c5:a9:48:f5:2d:db:94:98:
                    a1:51:9a:51:3d:44:5c:53:27:3c:d1:95:de:d4:9d:
                    bb:9b:1d:d9:86:4c:58:8d:52:2e:32:cd:73:3f:7f:
                    9a:34:7c:cb:e8:2d:bf:4e:6e:34:13:fd:86:4e:f8:
                    59:88:f2:23:7a:a0:27:7a:fb:9b:74:4a:6c:3a:c5:
                    54:2c:fd:fd:a3:ec:08:b0:f0:23:00:f7:48:61:f1:
                    7d:45:91:fe:35:73:88:e0:db:0d:c0:3f:0a:57:74:
                    36:19:13:c3:29:f1:7d:17:9b:e8:9b:93:11:8a:2d:
                    b0:ed:24:55:d4:d0:db:7a:fa:ad:50:4d:07:01:22:
                    cb:05:c1:b2:d2:fd:6f:c5:90:c8:aa:a1:d5:2a:d2:
                    be:f2:e8:5a:61:6a:dc:98:53:24:f2:2a:cc:0b:0c:
                    82:f1:70:91:bb:c9:cb:01:64:d9:7b:cf:58:c5:a1:
                    39:e7:2b:af:16:1a:d8:26:08:4f:4a:08:1f:31:18:
                    ad:14:f3:da:29:bd:be:b0:6a:a8:59:9f:84:ec:27:
                    de:d9:d2:31:16:48:7a:61:0f:1c:bb:56:ca:8f:9e:
                    99:e2:3e:00:a2:40:67:4e:77:0d:7b:0a:f1:3b:dc:
                    9a:6c:aa:76:7f:33:3d:80:8f:a3:ac:ff:dc:68:7f:
                    8d:58:b8:13:8f:39:3d:c5:a5:94:f6:b9:f9:67:1a:
                    e9:9f:67:d7:9e:43:44:3a:77:73:e9:67:33:03:a2:
                    e9:74:e7:b4:99:af:91:18:06:af:b4:36:0b:bb:38:
                    f0:3b:80:db:6f:0f:80:03:1b:9b:a5:dc:fe:95:2c:
                    33:8f:cf:d1:fa:a1:fa:02:ef:c6:e8:67:ec:97:7d:
                    ca:74:a5:b7:7d:d7:a8:f8:b1:09:70:65:d6:25:ba:
                    fb:d7:ec:f6:51:a7:57:3a:68:84:6e:87:ff:f5:20:
                    07:80:b2:44:2b:63:3f:c8:a1:cb:03:df:19:2b:15:
                    d0:4c:f3
                Exponent: 65537 (0x10001)
        X509v3 extensions:
            X509v3 Basic Constraints: critical
                CA:TRUE
            X509v3 Key Usage: critical
                Certificate Sign, CRL Sign
            X509v3 Subject Key Identifier: 
                03:D8:8D:8D:F8:43:77:5D:6C:6C:B6:19:4D:6C:C9:89:E6:22:E6:78
            X509v3 Subject Alternative Name: critical
                email:akmanrootca1@akman.auspicacious.org
    Signature Algorithm: sha256WithRSAEncryption
         04:1f:c3:ee:db:70:34:9b:6d:f7:25:19:99:6b:cb:a0:4f:28:
         fc:4d:2f:ac:1f:58:fd:9f:15:74:96:e1:95:88:1c:a9:9b:81:
         a2:82:49:c2:09:c3:12:8f:62:60:eb:ce:7c:12:01:19:49:03:
         5c:79:ed:14:f7:1a:e8:65:1d:99:97:c3:a1:31:be:c7:94:b9:
         93:a5:e4:d1:f4:d8:6d:4a:2c:fc:8c:a8:9d:20:e3:71:d4:cd:
         45:9b:89:64:3d:38:72:69:27:c4:75:72:3f:d4:4e:fe:f3:32:
         6d:99:bc:16:d7:ae:e2:7b:81:b7:c2:5a:7e:66:a3:b7:1f:0c:
         9c:61:2b:21:e9:6c:4a:b8:92:51:37:f7:b8:0a:0e:9c:a5:1e:
         5e:71:be:30:9b:70:04:03:a2:e5:62:fb:a6:1b:90:1f:4c:bf:
         b9:ff:c2:97:5c:cb:33:84:cc:64:cf:66:9f:52:33:26:05:cf:
         55:9a:2b:89:98:69:e4:66:12:6e:cd:b6:8f:3e:e9:aa:f3:a5:
         96:90:49:6c:04:eb:5a:68:89:eb:bd:51:dd:95:04:4d:7f:7c:
         07:be:ca:1d:fb:63:79:0e:1b:57:18:10:71:64:6c:c4:7a:ef:
         40:91:05:41:18:aa:8a:1c:70:95:ae:c6:af:a6:5e:2e:c6:13:
         f5:c1:e2:19:fa:c1:d8:a9:f6:d3:d2:7a:8d:18:4b:f3:e7:05:
         d3:6c:b0:1b:b0:1d:1f:1f:9c:15:a7:78:f7:e7:68:af:b5:58:
         ca:e6:e1:27:5a:41:84:8c:c0:f7:e0:16:57:da:bc:c7:0c:14:
         78:3c:db:3d:0b:b7:57:3b:0a:24:14:d7:05:e3:83:19:af:b7:
         34:0c:26:e2:bf:bd:e0:b9:88:2d:75:50:83:da:4c:67:4d:02:
         1c:69:fd:52:37:91:c0:6d:59:08:38:61:12:3b:51:5c:55:1e:
         43:05:f4:04:81:5d:51:6d:b4:39:5d:e3:58:be:70:82:09:4d:
         40:d9:0e:30:f7:dc:78:ad:1e:ca:18:8a:d5:c6:f5:67:2e:69:
         e4:59:32:17:f1:12:f5:c4:cc:1f:f1:bf:2e:a5:76:68:5f:1a:
         57:b7:f9:56:13:f7:75:0b:52:90:61:6e:d9:f6:9f:c5:c2:6c:
         c8:33:79:6d:e9:0d:8b:bb:a8:e8:c5:38:2e:74:4f:72:cc:aa:
         04:c8:38:6e:9c:6d:aa:34:65:8e:1c:43:16:8a:78:5a:af:b3:
         01:2a:5b:85:53:7a:e5:5f:d0:bf:e8:c3:26:32:46:89:e0:57:
         e8:69:52:92:c2:37:67:ad:65:44:61:d4:97:c8:23:2a:3c:56:
         9b:d6:62:63:78:7b:eb:40
-----BEGIN CERTIFICATE-----
MIIE/zCCAuegAwIBAgIQZLMc0sbIcbZI+sh8TN+NlzANBgkqhkiG9w0BAQsFADAA
MB4XDTE4MTIxNDA0MTIxNloXDTI4MTIxMTA0MTIxNlowADCCAiIwDQYJKoZIhvcN
AQEBBQADggIPADCCAgoCggIBALZ+s+qhBkeFwq8MItoGaXdVx9IdDA4XHSo2GYVJ
SsNU1jD/ZtNlc6YXaDCJcdjPZxyWgEad6KfaFcr5FnUbrP1/2QoGg9qSuVPxt0np
a8LoolYkl8Xk5jqABmNZg4reHPpu3Xy5pmf3KY9SRvHQPhNEGYWh5C83sJQ/4/aX
ZchwxMAZ0yrD+hrgakrh3cWpSPUt25SYoVGaUT1EXFMnPNGV3tSdu5sd2YZMWI1S
LjLNcz9/mjR8y+gtv05uNBP9hk74WYjyI3qgJ3r7m3RKbDrFVCz9/aPsCLDwIwD3
SGHxfUWR/jVziODbDcA/Cld0NhkTwynxfReb6JuTEYotsO0kVdTQ23r6rVBNBwEi
ywXBstL9b8WQyKqh1SrSvvLoWmFq3JhTJPIqzAsMgvFwkbvJywFk2XvPWMWhOecr
rxYa2CYIT0oIHzEYrRTz2im9vrBqqFmfhOwn3tnSMRZIemEPHLtWyo+emeI+AKJA
Z053DXsK8Tvcmmyqdn8zPYCPo6z/3Gh/jVi4E485PcWllPa5+Wca6Z9n155DRDp3
c+lnMwOi6XTntJmvkRgGr7Q2C7s48DuA228PgAMbm6Xc/pUsM4/P0fqh+gLvxuhn
7Jd9ynSlt33XqPixCXBl1iW6+9fs9lGnVzpohG6H//UgB4CyRCtjP8ihywPfGSsV
0EzzAgMBAAGjdTBzMA8GA1UdEwEB/wQFMAMBAf8wDgYDVR0PAQH/BAQDAgEGMB0G
A1UdDgQWBBQD2I2N+EN3XWxsthlNbMmJ5iLmeDAxBgNVHREBAf8EJzAlgSNha21h
bnJvb3RjYTFAYWttYW4uYXVzcGljYWNpb3VzLm9yZzANBgkqhkiG9w0BAQsFAAOC
AgEABB/D7ttwNJtt9yUZmWvLoE8o/E0vrB9Y/Z8VdJbhlYgcqZuBooJJwgnDEo9i
YOvOfBIBGUkDXHntFPca6GUdmZfDoTG+x5S5k6Xk0fTYbUos/IyonSDjcdTNRZuJ
ZD04cmknxHVyP9RO/vMybZm8Fteu4nuBt8Jafmajtx8MnGErIelsSriSUTf3uAoO
nKUeXnG+MJtwBAOi5WL7phuQH0y/uf/Cl1zLM4TMZM9mn1IzJgXPVZoriZhp5GYS
bs22jz7pqvOllpBJbATrWmiJ671R3ZUETX98B77KHftjeQ4bVxgQcWRsxHrvQJEF
QRiqihxwla7Gr6ZeLsYT9cHiGfrB2Kn209J6jRhL8+cF02ywG7AdHx+cFad49+do
r7VYyubhJ1pBhIzA9+AWV9q8xwwUeDzbPQu3VzsKJBTXBeODGa+3NAwm4r+94LmI
LXVQg9pMZ00CHGn9UjeRwG1ZCDhhEjtRXFUeQwX0BIFdUW20OV3jWL5wgglNQNkO
MPfceK0eyhiK1cb1Zy5p5FkyF/ES9cTMH/G/LqV2aF8aV7f5VhP3dQtSkGFu2faf
xcJsyDN5bekNi7uo6MU4LnRPcsyqBMg4bpxtqjRljhxDFop4Wq+zASpbhVN65V/Q
v+jDJjJGieBX6GlSksI3Z61lRGHUl8gjKjxWm9ZiY3h760A=
-----END CERTIFICATE-----
