Certificate:
    Data:
        Version: 3 (0x2)
        Serial Number:
            c6:75:d9:6c:df:a9:c2:78:b9:c8:8c:c1:bb:16:17:97
        Signature Algorithm: sha256WithRSAEncryption
        Issuer: 
        Validity
            Not Before: Dec 14 04:12:18 2018 GMT
            Not After : Dec 11 04:12:18 2028 GMT
        Subject: 
        Subject Public Key Info:
            Public Key Algorithm: rsaEncryption
                RSA Public-Key: (4096 bit)
                Modulus:
                    00:b5:63:6c:f5:af:32:62:a1:30:fe:6a:4a:bc:37:
                    dc:04:0a:2e:37:7c:20:cc:c5:29:85:41:21:84:a2:
                    f8:ae:01:97:cd:51:85:f2:54:04:c1:f7:db:ef:e0:
                    94:28:56:fc:83:13:22:7e:63:bf:07:5f:f9:e9:39:
                    d3:49:44:67:4e:c7:47:b1:71:c6:ab:9a:48:3d:ff:
                    b6:44:bb:e9:94:17:b2:67:08:d8:9b:68:a0:f0:fa:
                    7f:9b:92:a2:d1:52:45:bb:13:dc:c1:ad:bf:71:4a:
                    72:55:d6:1f:45:5d:e9:df:c5:ee:62:88:46:4e:27:
                    2d:8e:7a:6f:50:90:70:66:76:6b:d0:8e:7f:7e:ff:
                    47:34:bf:dd:d3:4f:6d:3b:5a:19:e0:56:70:a1:be:
                    8b:fc:51:e3:30:e3:df:d6:46:c2:2b:a9:2e:c9:0c:
                    f9:a8:f0:b7:b2:29:0f:81:08:4a:32:fc:b0:99:a5:
                    14:52:2b:c3:11:63:f3:8e:5c:e9:ea:c2:19:95:e8:
                    b3:af:78:68:3b:dd:ba:af:a9:eb:a8:44:37:01:9b:
                    34:48:87:75:30:ef:de:f0:ee:72:8c:d7:74:71:cf:
                    76:49:e1:f8:52:7b:ec:d7:52:0c:55:bd:ca:51:73:
                    a4:84:aa:da:db:e5:27:02:af:2c:06:29:66:45:71:
                    ea:2f:c2:13:1f:6c:15:b2:d8:e2:0e:fb:6e:f2:8d:
                    ee:b2:fe:77:14:5f:ec:1a:d5:65:9b:6d:c0:64:e2:
                    0a:2d:bb:5a:ce:ca:4a:50:4f:b2:bd:a5:52:86:63:
                    80:1e:f5:bf:ce:c2:eb:7c:f9:6e:68:4c:6c:26:f2:
                    03:de:55:45:d9:39:60:d0:90:c6:b2:b6:10:45:8e:
                    25:b7:da:11:8c:63:45:5b:eb:d9:2d:75:d7:b2:94:
                    9a:45:3b:21:42:a5:e4:36:4e:96:3e:89:71:26:60:
                    95:39:65:df:53:3b:08:8e:c1:a9:a8:9b:a7:3d:a8:
                    fa:2f:3f:67:47:ae:39:f3:21:33:d7:47:b0:29:fb:
                    1c:72:31:05:05:77:10:52:e2:12:3d:23:ed:62:4d:
                    af:a9:a0:2f:e9:ed:5a:23:0a:ad:bd:23:b9:c5:b1:
                    14:b9:7d:be:5e:40:9a:c4:e2:02:65:a4:eb:9c:15:
                    c7:f2:8c:e8:aa:8d:8e:53:83:5d:9f:c7:c1:be:00:
                    d5:86:00:0c:b4:1d:36:19:d8:ff:38:ca:05:37:bc:
                    eb:42:17:71:a4:43:b1:96:63:e4:33:d5:d1:3f:53:
                    1a:b5:f9:01:28:e1:21:b1:08:ae:d6:e3:83:a3:63:
                    2d:8f:ea:f4:f4:bb:05:5e:1b:82:5a:80:ad:ea:ea:
                    f1:c4:eb
                Exponent: 65537 (0x10001)
        X509v3 extensions:
            Authority Information Access: 
                CA Issuers - URI:http://akmansubca1.akman.auspicacious.org/akmansubca1.crt
                OCSP - URI:http://ocsp.akmansubca1.akman.auspicacious.org:9081

            X509v3 Authority Key Identifier: 
                keyid:33:2F:FB:BB:2F:6C:46:7D:F8:F8:02:1F:B5:CC:73:81:5B:80:32:AB

            X509v3 Basic Constraints: critical
                CA:FALSE
            X509v3 CRL Distribution Points: 

                Full Name:
                  URI:http://akmansubca1.akman.auspicacious.org/akmansubca1.crl

            X509v3 Extended Key Usage: 
                TLS Web Client Authentication
            X509v3 Key Usage: critical
                Digital Signature
            X509v3 Subject Key Identifier: 
                92:00:03:B6:CB:75:61:24:A3:B0:3A:11:F9:C9:A3:B8:2F:A6:F1:5F
            X509v3 Subject Alternative Name: critical
                email:akmanclient1@akman.auspicacious.org
    Signature Algorithm: sha256WithRSAEncryption
         2d:d2:02:31:bf:4a:c0:ef:1e:dc:01:d4:5c:e1:6f:6c:3a:58:
         a9:e0:13:35:49:46:d4:e5:82:45:e3:63:e6:a9:01:15:45:9e:
         6c:ff:16:f8:fe:db:7d:e2:e2:18:06:85:22:f4:b8:74:b3:d4:
         f9:a6:ea:83:69:f8:61:8b:1f:e9:ae:07:b8:3f:e7:1e:7f:70:
         e3:5f:37:8d:72:4e:9a:22:d7:ea:7f:59:16:b6:06:5c:89:24:
         8f:2a:e9:60:2a:7c:12:ef:da:e4:58:2c:d8:3d:a1:bd:d0:64:
         f9:ba:26:c9:7c:12:6d:f9:6a:f5:2d:36:56:a8:a2:c0:ec:7c:
         9b:72:15:ee:02:65:75:56:46:f6:13:21:60:f7:0e:e2:9e:de:
         e6:68:38:e8:82:81:5e:bf:38:fd:cc:ee:c3:77:95:69:72:06:
         86:88:2b:28:3c:c2:80:1d:6b:58:6f:26:d4:aa:ad:b5:c4:5d:
         93:39:18:33:5a:03:94:66:25:f3:4e:93:5b:8f:eb:e4:1a:60:
         7b:54:40:8a:ad:94:14:8d:19:5e:b9:76:e9:9c:1b:5c:b3:9f:
         c7:42:1d:90:1d:11:71:86:c8:0c:e0:2c:d3:95:a9:c4:2a:78:
         1d:d5:24:48:b9:11:05:02:7a:eb:3f:b0:cb:ec:fc:7a:4a:aa:
         79:e4:ed:a9:af:92:0e:4c:40:39:b9:9f:3d:1d:e2:1d:af:78:
         7e:ec:6c:b5:21:8e:78:54:62:11:b4:ae:75:72:4e:b6:d9:67:
         20:00:d1:40:01:f7:82:cd:de:6f:ea:64:b4:96:87:87:0f:18:
         c3:0d:0a:7c:67:3b:a8:48:b8:12:1d:95:26:2d:fe:9a:fa:49:
         a4:33:b4:3f:4a:5f:a1:3a:03:14:39:e1:d4:b6:c5:2d:12:67:
         56:b3:cd:6f:42:ea:f5:71:91:95:2a:c8:43:37:e2:dd:7e:d1:
         2e:4f:bc:89:7e:b0:ce:d2:8c:18:a7:23:52:87:25:c0:4d:a2:
         3f:37:dc:59:e4:ab:3e:57:69:97:8e:59:98:72:0f:0d:42:54:
         1b:6d:51:04:c8:65:2a:7f:aa:c2:2b:63:03:c9:1b:25:ad:fd:
         b0:af:0a:32:c0:2d:49:af:f7:b7:2b:98:f6:3d:db:9b:f6:61:
         a2:43:e6:5c:63:04:78:05:fe:7e:a6:ef:5b:4b:40:63:c8:18:
         de:a3:cc:0b:76:3d:6c:ae:9f:81:78:a0:d0:9e:ce:ce:2f:69:
         58:fa:50:c2:72:bb:f7:d2:73:b3:fd:e0:4d:77:d7:24:a4:b2:
         49:32:74:dd:49:74:ed:d3:3a:e9:00:7a:34:79:5e:6a:2e:0b:
         de:44:bf:1a:7f:26:79:e5
-----BEGIN CERTIFICATE-----
MIIGHjCCBAagAwIBAgIRAMZ12WzfqcJ4uciMwbsWF5cwDQYJKoZIhvcNAQELBQAw
ADAeFw0xODEyMTQwNDEyMThaFw0yODEyMTEwNDEyMThaMAAwggIiMA0GCSqGSIb3
DQEBAQUAA4ICDwAwggIKAoICAQC1Y2z1rzJioTD+akq8N9wECi43fCDMxSmFQSGE
oviuAZfNUYXyVATB99vv4JQoVvyDEyJ+Y78HX/npOdNJRGdOx0exccarmkg9/7ZE
u+mUF7JnCNibaKDw+n+bkqLRUkW7E9zBrb9xSnJV1h9FXenfxe5iiEZOJy2Oem9Q
kHBmdmvQjn9+/0c0v93TT207WhngVnChvov8UeMw49/WRsIrqS7JDPmo8LeyKQ+B
CEoy/LCZpRRSK8MRY/OOXOnqwhmV6LOveGg73bqvqeuoRDcBmzRIh3Uw797w7nKM
13Rxz3ZJ4fhSe+zXUgxVvcpRc6SEqtrb5ScCrywGKWZFceovwhMfbBWy2OIO+27y
je6y/ncUX+wa1WWbbcBk4gotu1rOykpQT7K9pVKGY4Ae9b/Owut8+W5oTGwm8gPe
VUXZOWDQkMaythBFjiW32hGMY0Vb69ktddeylJpFOyFCpeQ2TpY+iXEmYJU5Zd9T
OwiOwamom6c9qPovP2dHrjnzITPXR7Ap+xxyMQUFdxBS4hI9I+1iTa+poC/p7Voj
Cq29I7nFsRS5fb5eQJrE4gJlpOucFcfyjOiqjY5Tg12fx8G+ANWGAAy0HTYZ2P84
ygU3vOtCF3GkQ7GWY+Qz1dE/Uxq1+QEo4SGxCK7W44OjYy2P6vT0uwVeG4JagK3q
6vHE6wIDAQABo4IBkTCCAY0wgZgGCCsGAQUFBwEBBIGLMIGIMEUGCCsGAQUFBzAC
hjlodHRwOi8vYWttYW5zdWJjYTEuYWttYW4uYXVzcGljYWNpb3VzLm9yZy9ha21h
bnN1YmNhMS5jcnQwPwYIKwYBBQUHMAGGM2h0dHA6Ly9vY3NwLmFrbWFuc3ViY2Ex
LmFrbWFuLmF1c3BpY2FjaW91cy5vcmc6OTA4MTAfBgNVHSMEGDAWgBQzL/u7L2xG
ffj4Ah+1zHOBW4AyqzAMBgNVHRMBAf8EAjAAMEoGA1UdHwRDMEEwP6A9oDuGOWh0
dHA6Ly9ha21hbnN1YmNhMS5ha21hbi5hdXNwaWNhY2lvdXMub3JnL2FrbWFuc3Vi
Y2ExLmNybDATBgNVHSUEDDAKBggrBgEFBQcDAjAOBgNVHQ8BAf8EBAMCB4AwHQYD
VR0OBBYEFJIAA7bLdWEko7A6EfnJo7gvpvFfMDEGA1UdEQEB/wQnMCWBI2FrbWFu
Y2xpZW50MUBha21hbi5hdXNwaWNhY2lvdXMub3JnMA0GCSqGSIb3DQEBCwUAA4IC
AQAt0gIxv0rA7x7cAdRc4W9sOlip4BM1SUbU5YJF42PmqQEVRZ5s/xb4/tt94uIY
BoUi9Lh0s9T5puqDafhhix/prge4P+cef3DjXzeNck6aItfqf1kWtgZciSSPKulg
KnwS79rkWCzYPaG90GT5uibJfBJt+Wr1LTZWqKLA7HybchXuAmV1Vkb2EyFg9w7i
nt7maDjogoFevzj9zO7Dd5VpcgaGiCsoPMKAHWtYbybUqq21xF2TORgzWgOUZiXz
TpNbj+vkGmB7VECKrZQUjRleuXbpnBtcs5/HQh2QHRFxhsgM4CzTlanEKngd1SRI
uREFAnrrP7DL7Px6Sqp55O2pr5IOTEA5uZ89HeIdr3h+7Gy1IY54VGIRtK51ck62
2WcgANFAAfeCzd5v6mS0loeHDxjDDQp8ZzuoSLgSHZUmLf6a+kmkM7Q/Sl+hOgMU
OeHUtsUtEmdWs81vQur1cZGVKshDN+LdftEuT7yJfrDO0owYpyNShyXATaI/N9xZ
5Ks+V2mXjlmYcg8NQlQbbVEEyGUqf6rCK2MDyRslrf2wrwoywC1Jr/e3K5j2Pdub
9mGiQ+ZcYwR4Bf5+pu9bS0BjyBjeo8wLdj1srp+BeKDQns7OL2lY+lDCcrv30nOz
/eBNd9ckpLJJMnTdSXTt0zrpAHo0eV5qLgveRL8afyZ55Q==
-----END CERTIFICATE-----
